target datalayout = "e-m:e-p270:32:32-p271:32:32-p272:64:64-i64:64-i128:128-f80:128-n8:16:32:64-S128"
target triple = "x86_64-pc-linux-gnu"

%struct.ExprEvalStep = type { i64, ptr, ptr, %union.anon }
%union.anon = type { %struct.anon.23 }
%struct.anon.23 = type { ptr, ptr, i32, i32, ptr, ptr }
%struct.ExprState = type { i32, i8, i8, i64, ptr, ptr, ptr, ptr, ptr, i32, i32, ptr, ptr, ptr, ptr, ptr, ptr, ptr }
%struct.Node = type { i32 }
%struct.ForEachState = type { ptr, i32 }
%struct.Expr = type { i32 }
%struct.Const = type { %struct.Expr, i32, i32, i32, i32, i64, i8, i8, i32 }
%struct.PlanState = type { i32, ptr, ptr, ptr, ptr, ptr, ptr, ptr, ptr, ptr, ptr, ptr, ptr, ptr, ptr, ptr, ptr, ptr, i8, ptr, ptr, ptr, ptr, ptr, i8, i8, i8, i8, i8, i8, i8, i8 }
%struct.FmgrInfo = type { ptr, i32, i16, i8, i8, i8, ptr, ptr, ptr }
%struct.anon.6 = type { ptr, ptr, ptr, i32, i8 }
%struct.FunctionCallInfoBaseData = type { ptr, ptr, ptr, i32, i8, i16, [0 x %struct.NullableDatum] }
%struct.NullableDatum = type { i64, i8 }
%struct.List = type { i32, i32, i32, ptr, [0 x %union.ListCell] }
%union.ListCell = type { ptr }

@.str.1 = private unnamed_addr constant [11 x i8] c"execExpr.c\00", align 1
@object_access_hook = external global ptr, align 8
@.str.24 = private unnamed_addr constant [48 x i8] c"cannot pass more than %d argument to a function\00", align 1
@.str.25 = private unnamed_addr constant [49 x i8] c"cannot pass more than %d arguments to a function\00", align 1
@__func__.ExecInitFunc = private unnamed_addr constant [13 x i8] c"ExecInitFunc\00", align 1
@.str.26 = private unnamed_addr constant [63 x i8] c"set-valued function called in context that cannot accept a set\00", align 1
@pgstat_track_functions = external global i32, align 4

; Function Attrs: inlinehint nounwind uwtable
define internal i32 @list_length(ptr noundef %0) #3 {
  %2 = alloca ptr, align 8
  store ptr %0, ptr %2, align 8
  %3 = load ptr, ptr %2, align 8
  %4 = icmp ne ptr %3, null
  br i1 %4, label %5, label %9

5:                                                ; preds = %1
  %6 = load ptr, ptr %2, align 8
  %7 = getelementptr inbounds nuw %struct.List, ptr %6, i32 0, i32 1
  %8 = load i32, ptr %7, align 4
  br label %10

9:                                                ; preds = %1
  br label %10

10:                                               ; preds = %9, %5
  %11 = phi i32 [ %8, %5 ], [ 0, %9 ]
  ret i32 %11
}

; Function Attrs: nounwind uwtable
define internal void @ExecInitFunc(ptr noundef %0, ptr noundef %1, ptr noundef %2, i32 noundef %3, i32 noundef %4, ptr noundef %5) #0 {
  %7 = alloca ptr, align 8
  %8 = alloca ptr, align 8
  %9 = alloca ptr, align 8
  %10 = alloca i32, align 4
  %11 = alloca i32, align 4
  %12 = alloca ptr, align 8
  %13 = alloca i32, align 4
  %14 = alloca i32, align 4
  %15 = alloca ptr, align 8
  %16 = alloca ptr, align 8
  %17 = alloca i32, align 4
  %18 = alloca ptr, align 8
  %19 = alloca %struct.ForEachState, align 8
  %20 = alloca ptr, align 8
  %21 = alloca ptr, align 8
  store ptr %0, ptr %7, align 8
  store ptr %1, ptr %8, align 8
  store ptr %2, ptr %9, align 8
  store i32 %3, ptr %10, align 4
  store i32 %4, ptr %11, align 4
  store ptr %5, ptr %12, align 8
  call void @llvm.lifetime.start.p0(i64 4, ptr %13) #8
  %22 = load ptr, ptr %9, align 8
  %23 = call i32 @list_length(ptr noundef %22)
  store i32 %23, ptr %13, align 4
  call void @llvm.lifetime.start.p0(i64 4, ptr %14) #8
  call void @llvm.lifetime.start.p0(i64 8, ptr %15) #8
  call void @llvm.lifetime.start.p0(i64 8, ptr %16) #8
  call void @llvm.lifetime.start.p0(i64 4, ptr %17) #8
  call void @llvm.lifetime.start.p0(i64 8, ptr %18) #8
  %24 = load i32, ptr %10, align 4
  %25 = call i32 @GetUserId()
  %26 = call i32 @object_aclcheck(i32 noundef 1255, i32 noundef %24, i32 noundef %25, i64 noundef 128)
  store i32 %26, ptr %14, align 4
  %27 = load i32, ptr %14, align 4
  %28 = icmp ne i32 %27, 0
  br i1 %28, label %29, label %33

29:                                               ; preds = %6
  %30 = load i32, ptr %14, align 4
  %31 = load i32, ptr %10, align 4
  %32 = call ptr @get_func_name(i32 noundef %31)
  call void @aclcheck_error(i32 noundef %30, i32 noundef 19, ptr noundef %32)
  br label %33

33:                                               ; preds = %29, %6
  br label %34

34:                                               ; preds = %33
  %35 = load ptr, ptr @object_access_hook, align 8
  %36 = icmp ne ptr %35, null
  br i1 %36, label %37, label %39

37:                                               ; preds = %34
  %38 = load i32, ptr %10, align 4
  call void @RunFunctionExecuteHook(i32 noundef %38)
  br label %39

39:                                               ; preds = %37, %34
  br label %40

40:                                               ; preds = %39
  br label %41

41:                                               ; preds = %40
  %42 = load i32, ptr %13, align 4
  %43 = icmp sgt i32 %42, 100
  br i1 %43, label %44, label %56

44:                                               ; preds = %41
  br label %45

45:                                               ; preds = %44
  br i1 true, label %46, label %48

46:                                               ; preds = %45
  %47 = call zeroext i1 @errstart_cold(i32 noundef 21, ptr noundef null) #9
  br i1 %47, label %50, label %53

48:                                               ; preds = %45
  %49 = call zeroext i1 @errstart(i32 noundef 21, ptr noundef null)
  br i1 %49, label %50, label %53

50:                                               ; preds = %48, %46
  %51 = call i32 @errcode(i32 noundef 50856197)
  %52 = call i32 (ptr, ptr, i64, ...) @errmsg_plural(ptr noundef @.str.24, ptr noundef @.str.25, i64 noundef 100, i32 noundef 100)
  call void @errfinish(ptr noundef @.str.1, i32 noundef 2732, ptr noundef @__func__.ExecInitFunc)
  br label %53

53:                                               ; preds = %50, %48, %46
  unreachable

54:                                               ; No predecessors!
  br label %55

55:                                               ; preds = %54
  br label %56

56:                                               ; preds = %55, %41
  %57 = call ptr @palloc0(i64 noundef 48)
  %58 = load ptr, ptr %7, align 8
  %59 = getelementptr inbounds nuw %struct.ExprEvalStep, ptr %58, i32 0, i32 3
  %60 = getelementptr inbounds nuw %struct.anon.6, ptr %59, i32 0, i32 0
  store ptr %57, ptr %60, align 8
  %61 = load i32, ptr %13, align 4
  %62 = sext i32 %61 to i64
  %63 = mul i64 16, %62
  %64 = add i64 32, %63
  %65 = call ptr @palloc0(i64 noundef %64)
  %66 = load ptr, ptr %7, align 8
  %67 = getelementptr inbounds nuw %struct.ExprEvalStep, ptr %66, i32 0, i32 3
  %68 = getelementptr inbounds nuw %struct.anon.6, ptr %67, i32 0, i32 1
  store ptr %65, ptr %68, align 8
  %69 = load ptr, ptr %7, align 8
  %70 = getelementptr inbounds nuw %struct.ExprEvalStep, ptr %69, i32 0, i32 3
  %71 = getelementptr inbounds nuw %struct.anon.6, ptr %70, i32 0, i32 0
  %72 = load ptr, ptr %71, align 8
  store ptr %72, ptr %15, align 8
  %73 = load ptr, ptr %7, align 8
  %74 = getelementptr inbounds nuw %struct.ExprEvalStep, ptr %73, i32 0, i32 3
  %75 = getelementptr inbounds nuw %struct.anon.6, ptr %74, i32 0, i32 1
  %76 = load ptr, ptr %75, align 8
  store ptr %76, ptr %16, align 8
  %77 = load i32, ptr %10, align 4
  %78 = load ptr, ptr %15, align 8
  call void @fmgr_info(i32 noundef %77, ptr noundef %78)
  %79 = load ptr, ptr %8, align 8
  %80 = load ptr, ptr %15, align 8
  %81 = getelementptr inbounds nuw %struct.FmgrInfo, ptr %80, i32 0, i32 8
  store ptr %79, ptr %81, align 8
  br label %82

82:                                               ; preds = %56
  %83 = load ptr, ptr %15, align 8
  %84 = load ptr, ptr %16, align 8
  %85 = getelementptr inbounds nuw %struct.FunctionCallInfoBaseData, ptr %84, i32 0, i32 0
  store ptr %83, ptr %85, align 8
  %86 = load ptr, ptr %16, align 8
  %87 = getelementptr inbounds nuw %struct.FunctionCallInfoBaseData, ptr %86, i32 0, i32 1
  store ptr null, ptr %87, align 8
  %88 = load ptr, ptr %16, align 8
  %89 = getelementptr inbounds nuw %struct.FunctionCallInfoBaseData, ptr %88, i32 0, i32 2
  store ptr null, ptr %89, align 8
  %90 = load i32, ptr %11, align 4
  %91 = load ptr, ptr %16, align 8
  %92 = getelementptr inbounds nuw %struct.FunctionCallInfoBaseData, ptr %91, i32 0, i32 3
  store i32 %90, ptr %92, align 8
  %93 = load ptr, ptr %16, align 8
  %94 = getelementptr inbounds nuw %struct.FunctionCallInfoBaseData, ptr %93, i32 0, i32 4
  store i8 0, ptr %94, align 4
  %95 = load i32, ptr %13, align 4
  %96 = trunc i32 %95 to i16
  %97 = load ptr, ptr %16, align 8
  %98 = getelementptr inbounds nuw %struct.FunctionCallInfoBaseData, ptr %97, i32 0, i32 5
  store i16 %96, ptr %98, align 2
  br label %99

99:                                               ; preds = %82
  br label %100

100:                                              ; preds = %99
  %101 = load ptr, ptr %15, align 8
  %102 = getelementptr inbounds nuw %struct.FmgrInfo, ptr %101, i32 0, i32 0
  %103 = load ptr, ptr %102, align 8
  %104 = load ptr, ptr %7, align 8
  %105 = getelementptr inbounds nuw %struct.ExprEvalStep, ptr %104, i32 0, i32 3
  %106 = getelementptr inbounds nuw %struct.anon.6, ptr %105, i32 0, i32 2
  store ptr %103, ptr %106, align 8
  %107 = load i32, ptr %13, align 4
  %108 = load ptr, ptr %7, align 8
  %109 = getelementptr inbounds nuw %struct.ExprEvalStep, ptr %108, i32 0, i32 3
  %110 = getelementptr inbounds nuw %struct.anon.6, ptr %109, i32 0, i32 3
  store i32 %107, ptr %110, align 8
  %111 = load ptr, ptr %15, align 8
  %112 = getelementptr inbounds nuw %struct.FmgrInfo, ptr %111, i32 0, i32 4
  %113 = load i8, ptr %112, align 1, !range !4, !noundef !5
  %114 = trunc i8 %113 to i1
  br i1 %114, label %115, label %142

115:                                              ; preds = %100
  br label %116

116:                                              ; preds = %115
  br i1 true, label %117, label %119

117:                                              ; preds = %116
  %118 = call zeroext i1 @errstart_cold(i32 noundef 21, ptr noundef null) #9
  br i1 %118, label %121, label %139

119:                                              ; preds = %116
  %120 = call zeroext i1 @errstart(i32 noundef 21, ptr noundef null)
  br i1 %120, label %121, label %139

121:                                              ; preds = %119, %117
  %122 = call i32 @errcode(i32 noundef 1088)
  %123 = call i32 (ptr, ...) @errmsg(ptr noundef @.str.26)
  %124 = load ptr, ptr %12, align 8
  %125 = getelementptr inbounds nuw %struct.ExprState, ptr %124, i32 0, i32 11
  %126 = load ptr, ptr %125, align 8
  %127 = icmp ne ptr %126, null
  br i1 %127, label %128, label %137

128:                                              ; preds = %121
  %129 = load ptr, ptr %12, align 8
  %130 = getelementptr inbounds nuw %struct.ExprState, ptr %129, i32 0, i32 11
  %131 = load ptr, ptr %130, align 8
  %132 = getelementptr inbounds nuw %struct.PlanState, ptr %131, i32 0, i32 2
  %133 = load ptr, ptr %132, align 8
  %134 = load ptr, ptr %8, align 8
  %135 = call i32 @exprLocation(ptr noundef %134)
  %136 = call i32 @executor_errposition(ptr noundef %133, i32 noundef %135)
  br label %138

137:                                              ; preds = %121
  br label %138

138:                                              ; preds = %137, %128
  call void @errfinish(ptr noundef @.str.1, i32 noundef 2759, ptr noundef @__func__.ExecInitFunc)
  br label %139

139:                                              ; preds = %138, %119, %117
  unreachable

140:                                              ; No predecessors!
  br label %141

141:                                              ; preds = %140
  br label %142

142:                                              ; preds = %141, %100
  store i32 0, ptr %17, align 4
  call void @llvm.lifetime.start.p0(i64 16, ptr %19) #8
  %143 = getelementptr inbounds nuw %struct.ForEachState, ptr %19, i32 0, i32 0
  %144 = load ptr, ptr %9, align 8
  store ptr %144, ptr %143, align 8
  %145 = getelementptr inbounds nuw %struct.ForEachState, ptr %19, i32 0, i32 1
  store i32 0, ptr %145, align 8
  %146 = getelementptr i8, ptr %19, i64 12
  call void @llvm.memset.p0.i64(ptr align 4 %146, i8 0, i64 4, i1 false)
  br label %147

147:                                              ; preds = %220, %142
  %148 = getelementptr inbounds nuw %struct.ForEachState, ptr %19, i32 0, i32 0
  %149 = load ptr, ptr %148, align 8
  %150 = icmp ne ptr %149, null
  br i1 %150, label %151, label %168

151:                                              ; preds = %147
  %152 = getelementptr inbounds nuw %struct.ForEachState, ptr %19, i32 0, i32 1
  %153 = load i32, ptr %152, align 8
  %154 = getelementptr inbounds nuw %struct.ForEachState, ptr %19, i32 0, i32 0
  %155 = load ptr, ptr %154, align 8
  %156 = getelementptr inbounds nuw %struct.List, ptr %155, i32 0, i32 1
  %157 = load i32, ptr %156, align 4
  %158 = icmp slt i32 %153, %157
  br i1 %158, label %159, label %168

159:                                              ; preds = %151
  %160 = getelementptr inbounds nuw %struct.ForEachState, ptr %19, i32 0, i32 0
  %161 = load ptr, ptr %160, align 8
  %162 = getelementptr inbounds nuw %struct.List, ptr %161, i32 0, i32 3
  %163 = load ptr, ptr %162, align 8
  %164 = getelementptr inbounds nuw %struct.ForEachState, ptr %19, i32 0, i32 1
  %165 = load i32, ptr %164, align 8
  %166 = sext i32 %165 to i64
  %167 = getelementptr inbounds %union.ListCell, ptr %163, i64 %166
  store ptr %167, ptr %18, align 8
  br label %169

168:                                              ; preds = %151, %147
  store ptr null, ptr %18, align 8
  br label %169

169:                                              ; preds = %168, %159
  %170 = phi i32 [ 1, %159 ], [ 0, %168 ]
  %171 = icmp ne i32 %170, 0
  br i1 %171, label %173, label %172

172:                                              ; preds = %169
  call void @llvm.lifetime.end.p0(i64 16, ptr %19) #8
  br label %224

173:                                              ; preds = %169
  call void @llvm.lifetime.start.p0(i64 8, ptr %20) #8
  %174 = load ptr, ptr %18, align 8
  %175 = load ptr, ptr %174, align 8
  store ptr %175, ptr %20, align 8
  %176 = load ptr, ptr %20, align 8
  %177 = getelementptr inbounds nuw %struct.Node, ptr %176, i32 0, i32 0
  %178 = load i32, ptr %177, align 4
  %179 = icmp eq i32 %178, 7
  br i1 %179, label %180, label %202

180:                                              ; preds = %173
  call void @llvm.lifetime.start.p0(i64 8, ptr %21) #8
  %181 = load ptr, ptr %20, align 8
  store ptr %181, ptr %21, align 8
  %182 = load ptr, ptr %21, align 8
  %183 = getelementptr inbounds nuw %struct.Const, ptr %182, i32 0, i32 5
  %184 = load i64, ptr %183, align 8
  %185 = load ptr, ptr %16, align 8
  %186 = getelementptr inbounds nuw %struct.FunctionCallInfoBaseData, ptr %185, i32 0, i32 6
  %187 = load i32, ptr %17, align 4
  %188 = sext i32 %187 to i64
  %189 = getelementptr inbounds [0 x %struct.NullableDatum], ptr %186, i64 0, i64 %188
  %190 = getelementptr inbounds nuw %struct.NullableDatum, ptr %189, i32 0, i32 0
  store i64 %184, ptr %190, align 8
  %191 = load ptr, ptr %21, align 8
  %192 = getelementptr inbounds nuw %struct.Const, ptr %191, i32 0, i32 6
  %193 = load i8, ptr %192, align 8, !range !4, !noundef !5
  %194 = trunc i8 %193 to i1
  %195 = load ptr, ptr %16, align 8
  %196 = getelementptr inbounds nuw %struct.FunctionCallInfoBaseData, ptr %195, i32 0, i32 6
  %197 = load i32, ptr %17, align 4
  %198 = sext i32 %197 to i64
  %199 = getelementptr inbounds [0 x %struct.NullableDatum], ptr %196, i64 0, i64 %198
  %200 = getelementptr inbounds nuw %struct.NullableDatum, ptr %199, i32 0, i32 1
  %201 = zext i1 %194 to i8
  store i8 %201, ptr %200, align 8
  call void @llvm.lifetime.end.p0(i64 8, ptr %21) #8
  br label %217

202:                                              ; preds = %173
  %203 = load ptr, ptr %20, align 8
  %204 = load ptr, ptr %12, align 8
  %205 = load ptr, ptr %16, align 8
  %206 = getelementptr inbounds nuw %struct.FunctionCallInfoBaseData, ptr %205, i32 0, i32 6
  %207 = load i32, ptr %17, align 4
  %208 = sext i32 %207 to i64
  %209 = getelementptr inbounds [0 x %struct.NullableDatum], ptr %206, i64 0, i64 %208
  %210 = getelementptr inbounds nuw %struct.NullableDatum, ptr %209, i32 0, i32 0
  %211 = load ptr, ptr %16, align 8
  %212 = getelementptr inbounds nuw %struct.FunctionCallInfoBaseData, ptr %211, i32 0, i32 6
  %213 = load i32, ptr %17, align 4
  %214 = sext i32 %213 to i64
  %215 = getelementptr inbounds [0 x %struct.NullableDatum], ptr %212, i64 0, i64 %214
  %216 = getelementptr inbounds nuw %struct.NullableDatum, ptr %215, i32 0, i32 1
  call void @ExecInitExprRec(ptr noundef %203, ptr noundef %204, ptr noundef %210, ptr noundef %216)
  br label %217

217:                                              ; preds = %202, %180
  %218 = load i32, ptr %17, align 4
  %219 = add i32 %218, 1
  store i32 %219, ptr %17, align 4
  call void @llvm.lifetime.end.p0(i64 8, ptr %20) #8
  br label %220

220:                                              ; preds = %217
  %221 = getelementptr inbounds nuw %struct.ForEachState, ptr %19, i32 0, i32 1
  %222 = load i32, ptr %221, align 8
  %223 = add i32 %222, 1
  store i32 %223, ptr %221, align 8
  br label %147, !llvm.loop !56

224:                                              ; preds = %172
  %225 = load i32, ptr @pgstat_track_functions, align 4
  %226 = load ptr, ptr %15, align 8
  %227 = getelementptr inbounds nuw %struct.FmgrInfo, ptr %226, i32 0, i32 5
  %228 = load i8, ptr %227, align 8
  %229 = zext i8 %228 to i32
  %230 = icmp sle i32 %225, %229
  br i1 %230, label %231, label %246

231:                                              ; preds = %224
  %232 = load ptr, ptr %15, align 8
  %233 = getelementptr inbounds nuw %struct.FmgrInfo, ptr %232, i32 0, i32 3
  %234 = load i8, ptr %233, align 2, !range !4, !noundef !5
  %235 = trunc i8 %234 to i1
  br i1 %235, label %236, label %242

236:                                              ; preds = %231
  %237 = load i32, ptr %13, align 4
  %238 = icmp sgt i32 %237, 0
  br i1 %238, label %239, label %242

239:                                              ; preds = %236
  %240 = load ptr, ptr %7, align 8
  %241 = getelementptr inbounds nuw %struct.ExprEvalStep, ptr %240, i32 0, i32 0
  store i64 26, ptr %241, align 8
  br label %245

242:                                              ; preds = %236, %231
  %243 = load ptr, ptr %7, align 8
  %244 = getelementptr inbounds nuw %struct.ExprEvalStep, ptr %243, i32 0, i32 0
  store i64 25, ptr %244, align 8
  br label %245

245:                                              ; preds = %242, %239
  br label %261

246:                                              ; preds = %224
  %247 = load ptr, ptr %15, align 8
  %248 = getelementptr inbounds nuw %struct.FmgrInfo, ptr %247, i32 0, i32 3
  %249 = load i8, ptr %248, align 2, !range !4, !noundef !5
  %250 = trunc i8 %249 to i1
  br i1 %250, label %251, label %257

251:                                              ; preds = %246
  %252 = load i32, ptr %13, align 4
  %253 = icmp sgt i32 %252, 0
  br i1 %253, label %254, label %257

254:                                              ; preds = %251
  %255 = load ptr, ptr %7, align 8
  %256 = getelementptr inbounds nuw %struct.ExprEvalStep, ptr %255, i32 0, i32 0
  store i64 28, ptr %256, align 8
  br label %260

257:                                              ; preds = %251, %246
  %258 = load ptr, ptr %7, align 8
  %259 = getelementptr inbounds nuw %struct.ExprEvalStep, ptr %258, i32 0, i32 0
  store i64 27, ptr %259, align 8
  br label %260

260:                                              ; preds = %257, %254
  br label %261

261:                                              ; preds = %260, %245
  call void @llvm.lifetime.end.p0(i64 8, ptr %18) #8
  call void @llvm.lifetime.end.p0(i64 4, ptr %17) #8
  call void @llvm.lifetime.end.p0(i64 8, ptr %16) #8
  call void @llvm.lifetime.end.p0(i64 8, ptr %15) #8
  call void @llvm.lifetime.end.p0(i64 4, ptr %14) #8
  call void @llvm.lifetime.end.p0(i64 4, ptr %13) #8
  ret void
}