; Function Attrs: nounwind uwtable
define internal fastcc void @ExecInitFunc(ptr noundef nonnull captures(none) %0, ptr noundef %1, ptr noundef readonly captures(address_is_null) %2, i32 noundef %3, i32 noundef %4, ptr noundef %5) unnamed_addr #0 {
  %.not.i = icmp eq ptr %2, null
  br i1 %.not.i, label %list_length.exit, label %7

7:                                                ; preds = %6
  %8 = getelementptr inbounds nuw i8, ptr %2, i64 4
  %9 = load i32, ptr %8, align 4
  br label %list_length.exit

list_length.exit:                                 ; preds = %6, %7
  %10 = phi i32 [ %9, %7 ], [ 0, %6 ]
  %11 = tail call i32 @GetUserId() #10
  %12 = tail call i32 @object_aclcheck(i32 noundef 1255, i32 noundef %3, i32 noundef %11, i64 noundef 128) #10
  %.not = icmp eq i32 %12, 0
  br i1 %.not, label %15, label %13

13:                                               ; preds = %list_length.exit
  %14 = tail call ptr @get_func_name(i32 noundef %3) #10
  tail call void @aclcheck_error(i32 noundef %12, i32 noundef 19, ptr noundef %14) #10
  br label %15

15:                                               ; preds = %list_length.exit, %13
  %16 = load ptr, ptr @object_access_hook, align 8
  %.not70 = icmp eq ptr %16, null
  br i1 %.not70, label %18, label %17

17:                                               ; preds = %15
  tail call void @RunFunctionExecuteHook(i32 noundef %3) #10
  br label %18

18:                                               ; preds = %17, %15
  %19 = icmp sgt i32 %10, 100
  br i1 %19, label %20, label %24

20:                                               ; preds = %18
  %21 = tail call zeroext i1 @errstart_cold(i32 noundef 21, ptr noundef null) #11
  tail call void @llvm.assume(i1 %21)
  %22 = tail call i32 @errcode(i32 noundef 50856197) #10
  %23 = tail call i32 (ptr, ptr, i64, ...) @errmsg_plural(ptr noundef nonnull @.str.24, ptr noundef nonnull @.str.25, i64 noundef 100, i32 noundef 100) #10
  tail call void @errfinish(ptr noundef nonnull @.str.1, i32 noundef 2732, ptr noundef nonnull @__func__.ExecInitFunc) #10
  unreachable

24:                                               ; preds = %18
  %25 = tail call ptr @palloc0(i64 noundef 48) #10
  %26 = getelementptr inbounds nuw i8, ptr %0, i64 24
  store ptr %25, ptr %26, align 8
  %27 = sext i32 %10 to i64
  %28 = shl nsw i64 %27, 4
  %29 = add nsw i64 %28, 32
  %30 = tail call ptr @palloc0(i64 noundef %29) #10
  %31 = getelementptr inbounds nuw i8, ptr %0, i64 32
  store ptr %30, ptr %31, align 8
  %32 = load ptr, ptr %26, align 8
  tail call void @fmgr_info(i32 noundef %3, ptr noundef %32) #10
  %33 = getelementptr inbounds nuw i8, ptr %32, i64 40
  store ptr %1, ptr %33, align 8
  store ptr %32, ptr %30, align 8
  %34 = getelementptr inbounds nuw i8, ptr %30, i64 8
  %35 = getelementptr inbounds nuw i8, ptr %30, i64 24
  tail call void @llvm.memset.p0.i64(ptr noundef nonnull align 8 dereferenceable(16) %34, i8 0, i64 16, i1 false)
  store i32 %4, ptr %35, align 8
  %36 = getelementptr inbounds nuw i8, ptr %30, i64 28
  store i8 0, ptr %36, align 4
  %37 = trunc i32 %10 to i16
  %38 = getelementptr inbounds nuw i8, ptr %30, i64 30
  store i16 %37, ptr %38, align 2
  %39 = load ptr, ptr %32, align 8
  %40 = getelementptr inbounds nuw i8, ptr %0, i64 40
  store ptr %39, ptr %40, align 8
  %41 = getelementptr inbounds nuw i8, ptr %0, i64 48
  store i32 %10, ptr %41, align 8
  %42 = getelementptr inbounds nuw i8, ptr %32, i64 15
  %43 = load i8, ptr %42, align 1, !range !4, !noundef !5
  %44 = trunc nuw i8 %43 to i1
  br i1 %44, label %50, label %.preheader

.preheader:                                       ; preds = %24
  %45 = getelementptr inbounds nuw i8, ptr %2, i64 4
  br i1 %.not.i, label %._crit_edge, label %.lr.ph

.lr.ph:                                           ; preds = %.preheader
  %46 = getelementptr inbounds nuw i8, ptr %2, i64 16
  %47 = getelementptr inbounds nuw i8, ptr %30, i64 32
  %48 = load i32, ptr %45, align 4
  %49 = icmp sgt i32 %48, 0
  br i1 %49, label %.lr.ph82, label %._crit_edge

50:                                               ; preds = %24
  %51 = tail call zeroext i1 @errstart_cold(i32 noundef 21, ptr noundef null) #11
  tail call void @llvm.assume(i1 %51)
  %52 = tail call i32 @errcode(i32 noundef 1088) #10
  %53 = tail call i32 (ptr, ...) @errmsg(ptr noundef nonnull @.str.26) #10
  %54 = getelementptr inbounds nuw i8, ptr %5, i64 64
  %55 = load ptr, ptr %54, align 8
  %.not74 = icmp eq ptr %55, null
  br i1 %.not74, label %61, label %56

56:                                               ; preds = %50
  %57 = getelementptr inbounds nuw i8, ptr %55, i64 16
  %58 = load ptr, ptr %57, align 8
  %59 = tail call i32 @exprLocation(ptr noundef %1) #10
  %60 = tail call i32 @executor_errposition(ptr noundef %58, i32 noundef %59) #10
  br label %61

61:                                               ; preds = %50, %56
  tail call void @errfinish(ptr noundef nonnull @.str.1, i32 noundef 2759, ptr noundef nonnull @__func__.ExecInitFunc) #10
  unreachable

._crit_edge:                                      ; preds = %85, %.lr.ph, %.preheader
  %62 = load i32, ptr @pgstat_track_functions, align 4
  %63 = getelementptr inbounds nuw i8, ptr %32, i64 16
  %64 = load i8, ptr %63, align 8
  %65 = zext i8 %64 to i32
  %.not73 = icmp sgt i32 %62, %65
  %66 = getelementptr inbounds nuw i8, ptr %32, i64 14
  %67 = load i8, ptr %66, align 2, !range !4, !noundef !5
  %68 = trunc nuw i8 %67 to i1
  %69 = icmp sgt i32 %10, 0
  %or.cond3 = select i1 %68, i1 %69, i1 false
  %. = select i1 %or.cond3, i64 26, i64 25
  %.86 = select i1 %or.cond3, i64 28, i64 27
  %.sink = select i1 %.not73, i64 %.86, i64 %.
  store i64 %.sink, ptr %0, align 8
  ret void

.lr.ph82:                                         ; preds = %.lr.ph, %85
  %indvars.iv = phi i64 [ %indvars.iv.next, %85 ], [ 0, %.lr.ph ]
  %70 = load ptr, ptr %46, align 8
  %71 = getelementptr inbounds nuw %union.ListCell, ptr %70, i64 %indvars.iv
  %72 = load ptr, ptr %71, align 8
  %73 = load i32, ptr %72, align 4
  %74 = icmp eq i32 %73, 7
  br i1 %74, label %75, label %82

75:                                               ; preds = %.lr.ph82
  %76 = getelementptr inbounds nuw i8, ptr %72, i64 24
  %77 = load i64, ptr %76, align 8
  %78 = getelementptr inbounds nuw [0 x %struct.NullableDatum], ptr %47, i64 0, i64 %indvars.iv
  store i64 %77, ptr %78, align 8
  %79 = getelementptr inbounds nuw i8, ptr %72, i64 32
  %80 = load i8, ptr %79, align 8, !range !4, !noundef !5
  %81 = getelementptr inbounds nuw i8, ptr %78, i64 8
  store i8 %80, ptr %81, align 8
  br label %85

82:                                               ; preds = %.lr.ph82
  %83 = getelementptr inbounds nuw [0 x %struct.NullableDatum], ptr %47, i64 0, i64 %indvars.iv
  %84 = getelementptr inbounds nuw i8, ptr %83, i64 8
  tail call fastcc void @ExecInitExprRec(ptr noundef nonnull %72, ptr noundef %5, ptr noundef nonnull %83, ptr noundef nonnull %84)
  br label %85

85:                                               ; preds = %82, %75
  %indvars.iv.next = add nuw nsw i64 %indvars.iv, 1
  %86 = load i32, ptr %45, align 4
  %87 = sext i32 %86 to i64
  %88 = icmp slt i64 %indvars.iv.next, %87
  br i1 %88, label %.lr.ph82, label %._crit_edge
}